target datalayout = "e-m:e-p270:32:32-p271:32:32-p272:64:64-i64:64-i128:128-f80:128-n8:16:32:64-S128"
target triple = "x86_64-pc-linux-gnu"

%struct.slurm_conf_t = type { i64, ptr, i16, ptr, ptr, ptr, ptr, ptr, i16, ptr, ptr, ptr, ptr, ptr, ptr, ptr, i16, ptr, ptr, ptr, ptr, i16, ptr, ptr, ptr, i64, ptr, ptr, ptr, ptr, i16, ptr, ptr, i16, i32, ptr, i32, ptr, i32, i32, ptr, ptr, i64, i64, ptr, i16, i16, ptr, i32, i32, ptr, i32, ptr, i32, i16, i16, i16, ptr, i16, i16, ptr, ptr, i32, i16, i16, ptr, i32, i16, ptr, ptr, ptr, ptr, i16, ptr, ptr, ptr, ptr, i32, ptr, ptr, ptr, ptr, i16, i16, ptr, i32, i32, i32, i16, i16, ptr, ptr, i16, ptr, ptr, i32, i32, i32, i32, i32, i64, i32, i32, i16, ptr, ptr, i32, ptr, ptr, ptr, i16, i32, ptr, ptr, i16, ptr, ptr, i32, i16, ptr, ptr, ptr, ptr, i32, i32, i16, i16, i32, ptr, i16, ptr, i32, i32, i32, i32, i32, i32, ptr, i16, ptr, ptr, i32, i16, ptr, i32, i16, i16, ptr, ptr, ptr, i16, ptr, ptr, ptr, ptr, i16, i16, ptr, i16, ptr, i16, ptr, i16, ptr, i16, ptr, ptr, ptr, ptr, i16, ptr, ptr, ptr, i32, ptr, i32, ptr, ptr, i16, ptr, ptr, i32, i16, ptr, ptr, i16, i16, ptr, i16, ptr, ptr, ptr, i32, ptr, i16, i16, ptr, ptr, ptr, ptr, ptr, ptr, ptr, ptr, i16, i32, i16, ptr, ptr, ptr, ptr, i32, ptr, ptr, ptr, i16, ptr, ptr, ptr, i16, ptr, i16, ptr, i16, i16, ptr }
%struct.sockaddr_storage = type { i16, [118 x i8], i64 }
%struct.slurm_protocol_config_t = type { i32, ptr, i8, %struct.sockaddr_storage }

@.str = private unnamed_addr constant [21 x i8] c"slurm_protocol_api.c\00", align 1
@slurm_conf = external global %struct.slurm_conf_t, align 8
@.str.90 = private unnamed_addr constant [39 x i8] c"Unable to establish controller machine\00", align 1
@.str.91 = private unnamed_addr constant [36 x i8] c"Unable to establish controller port\00", align 1
@__func__._slurm_api_get_comm_config = private unnamed_addr constant [27 x i8] c"_slurm_api_get_comm_config\00", align 1

; Function Attrs: nounwind uwtable
define internal ptr @_slurm_api_get_comm_config() #0 {
  %1 = alloca ptr, align 8
  %2 = alloca ptr, align 8
  %3 = alloca i16, align 2
  %4 = alloca i32, align 4
  call void @llvm.lifetime.start.p0(i64 8, ptr %1) #12
  store ptr null, ptr %1, align 8
  call void @llvm.lifetime.start.p0(i64 8, ptr %2) #12
  call void @llvm.lifetime.start.p0(i64 2, ptr %3) #12
  %5 = call ptr @slurm_conf_lock()
  store ptr %5, ptr %2, align 8
  %6 = load ptr, ptr %2, align 8
  %7 = getelementptr inbounds nuw %struct.slurm_conf_t, ptr %6, i32 0, i32 36
  %8 = load i32, ptr %7, align 8
  %9 = icmp ne i32 %8, 0
  br i1 %9, label %10, label %22

10:                                               ; preds = %0
  %11 = load ptr, ptr %2, align 8
  %12 = getelementptr inbounds nuw %struct.slurm_conf_t, ptr %11, i32 0, i32 35
  %13 = load ptr, ptr %12, align 8
  %14 = icmp ne ptr %13, null
  br i1 %14, label %15, label %22

15:                                               ; preds = %10
  %16 = load ptr, ptr %2, align 8
  %17 = getelementptr inbounds nuw %struct.slurm_conf_t, ptr %16, i32 0, i32 35
  %18 = load ptr, ptr %17, align 8
  %19 = getelementptr inbounds ptr, ptr %18, i64 0
  %20 = load ptr, ptr %19, align 8
  %21 = icmp ne ptr %20, null
  br i1 %21, label %24, label %22

22:                                               ; preds = %15, %10, %0
  %23 = call i32 (ptr, ...) @error(ptr noundef @.str.90)
  br label %108

24:                                               ; preds = %15
  %25 = load ptr, ptr %2, align 8
  %26 = getelementptr inbounds nuw %struct.slurm_conf_t, ptr %25, i32 0, i32 181
  %27 = load i32, ptr %26, align 8
  %28 = icmp eq i32 %27, 0
  br i1 %28, label %29, label %31

29:                                               ; preds = %24
  %30 = call i32 (ptr, ...) @error(ptr noundef @.str.91)
  br label %108

31:                                               ; preds = %24
  %32 = load i32, ptr getelementptr inbounds nuw (%struct.slurm_conf_t, ptr @slurm_conf, i32 0, i32 181), align 8
  %33 = trunc i32 %32 to i16
  store i16 %33, ptr %3, align 2
  %34 = call i64 @time(ptr noundef null) #12
  %35 = call i32 @getpid() #12
  %36 = sext i32 %35 to i64
  %37 = add nsw i64 %34, %36
  %38 = load i16, ptr getelementptr inbounds nuw (%struct.slurm_conf_t, ptr @slurm_conf, i32 0, i32 182), align 4
  %39 = zext i16 %38 to i64
  %40 = srem i64 %37, %39
  %41 = load i16, ptr %3, align 2
  %42 = zext i16 %41 to i64
  %43 = add nsw i64 %42, %40
  %44 = trunc i64 %43 to i16
  store i16 %44, ptr %3, align 2
  %45 = call ptr @slurm_xcalloc(i64 noundef 1, i64 noundef 152, i1 noundef zeroext true, i1 noundef zeroext false, ptr noundef @.str, i32 noundef 152, ptr noundef @__func__._slurm_api_get_comm_config)
  store ptr %45, ptr %1, align 8
  %46 = load ptr, ptr %2, align 8
  %47 = getelementptr inbounds nuw %struct.slurm_conf_t, ptr %46, i32 0, i32 36
  %48 = load i32, ptr %47, align 8
  %49 = zext i32 %48 to i64
  %50 = call ptr @slurm_xcalloc(i64 noundef %49, i64 noundef 128, i1 noundef zeroext true, i1 noundef zeroext false, ptr noundef @.str, i32 noundef 154, ptr noundef @__func__._slurm_api_get_comm_config)
  %51 = load ptr, ptr %1, align 8
  %52 = getelementptr inbounds nuw %struct.slurm_protocol_config_t, ptr %51, i32 0, i32 1
  store ptr %50, ptr %52, align 8
  %53 = load ptr, ptr %2, align 8
  %54 = getelementptr inbounds nuw %struct.slurm_conf_t, ptr %53, i32 0, i32 36
  %55 = load i32, ptr %54, align 8
  %56 = load ptr, ptr %1, align 8
  %57 = getelementptr inbounds nuw %struct.slurm_protocol_config_t, ptr %56, i32 0, i32 0
  store i32 %55, ptr %57, align 8
  call void @llvm.lifetime.start.p0(i64 4, ptr %4) #12
  store i32 0, ptr %4, align 4
  br label %58

58:                                               ; preds = %90, %31
  %59 = load i32, ptr %4, align 4
  %60 = load ptr, ptr %1, align 8
  %61 = getelementptr inbounds nuw %struct.slurm_protocol_config_t, ptr %60, i32 0, i32 0
  %62 = load i32, ptr %61, align 8
  %63 = icmp ult i32 %59, %62
  br i1 %63, label %65, label %64

64:                                               ; preds = %58
  call void @llvm.lifetime.end.p0(i64 4, ptr %4) #12
  br label %93

65:                                               ; preds = %58
  %66 = load ptr, ptr %2, align 8
  %67 = getelementptr inbounds nuw %struct.slurm_conf_t, ptr %66, i32 0, i32 35
  %68 = load ptr, ptr %67, align 8
  %69 = load i32, ptr %4, align 4
  %70 = sext i32 %69 to i64
  %71 = getelementptr inbounds ptr, ptr %68, i64 %70
  %72 = load ptr, ptr %71, align 8
  %73 = icmp ne ptr %72, null
  br i1 %73, label %74, label %89

74:                                               ; preds = %65
  %75 = load ptr, ptr %1, align 8
  %76 = getelementptr inbounds nuw %struct.slurm_protocol_config_t, ptr %75, i32 0, i32 1
  %77 = load ptr, ptr %76, align 8
  %78 = load i32, ptr %4, align 4
  %79 = sext i32 %78 to i64
  %80 = getelementptr inbounds %struct.sockaddr_storage, ptr %77, i64 %79
  %81 = load i16, ptr %3, align 2
  %82 = load ptr, ptr %2, align 8
  %83 = getelementptr inbounds nuw %struct.slurm_conf_t, ptr %82, i32 0, i32 35
  %84 = load ptr, ptr %83, align 8
  %85 = load i32, ptr %4, align 4
  %86 = sext i32 %85 to i64
  %87 = getelementptr inbounds ptr, ptr %84, i64 %86
  %88 = load ptr, ptr %87, align 8
  call void @slurm_set_addr(ptr noundef %80, i16 noundef zeroext %81, ptr noundef %88)
  br label %89

89:                                               ; preds = %74, %65
  br label %90

90:                                               ; preds = %89
  %91 = load i32, ptr %4, align 4
  %92 = add nsw i32 %91, 1
  store i32 %92, ptr %4, align 4
  br label %58, !llvm.loop !20

93:                                               ; preds = %64
  %94 = load ptr, ptr %2, align 8
  %95 = getelementptr inbounds nuw %struct.slurm_conf_t, ptr %94, i32 0, i32 177
  %96 = load ptr, ptr %95, align 8
  %97 = icmp ne ptr %96, null
  br i1 %97, label %98, label %107

98:                                               ; preds = %93
  %99 = load ptr, ptr %1, align 8
  %100 = getelementptr inbounds nuw %struct.slurm_protocol_config_t, ptr %99, i32 0, i32 2
  store i8 1, ptr %100, align 8
  %101 = load ptr, ptr %1, align 8
  %102 = getelementptr inbounds nuw %struct.slurm_protocol_config_t, ptr %101, i32 0, i32 3
  %103 = load i16, ptr %3, align 2
  %104 = load ptr, ptr %2, align 8
  %105 = getelementptr inbounds nuw %struct.slurm_conf_t, ptr %104, i32 0, i32 177
  %106 = load ptr, ptr %105, align 8
  call void @slurm_set_addr(ptr noundef %102, i16 noundef zeroext %103, ptr noundef %106)
  br label %107

107:                                              ; preds = %98, %93
  br label %108

108:                                              ; preds = %107, %29, %22
  call void @slurm_conf_unlock()
  %109 = load ptr, ptr %1, align 8
  call void @llvm.lifetime.end.p0(i64 2, ptr %3) #12
  call void @llvm.lifetime.end.p0(i64 8, ptr %2) #12
  call void @llvm.lifetime.end.p0(i64 8, ptr %1) #12
  ret ptr %109
}