; Function Attrs: nounwind uwtable
define internal fastcc ptr @_slurm_api_get_comm_config() unnamed_addr #1 {
  %1 = tail call ptr @slurm_conf_lock() #19
  %2 = getelementptr inbounds nuw i8, ptr %1, i64 280
  %3 = load i32, ptr %2, align 8
  %.not = icmp eq i32 %3, 0
  br i1 %.not, label %9, label %4

4:                                                ; preds = %0
  %5 = getelementptr inbounds nuw i8, ptr %1, i64 272
  %6 = load ptr, ptr %5, align 8
  %.not27 = icmp eq ptr %6, null
  br i1 %.not27, label %9, label %7

7:                                                ; preds = %4
  %8 = load ptr, ptr %6, align 8
  %.not28 = icmp eq ptr %8, null
  br i1 %.not28, label %9, label %11

9:                                                ; preds = %7, %4, %0
  %10 = tail call i32 (ptr, ...) @error(ptr noundef nonnull @.str.90) #19
  br label %52

11:                                               ; preds = %7
  %12 = getelementptr inbounds nuw i8, ptr %1, i64 1216
  %13 = load i32, ptr %12, align 8
  %14 = icmp eq i32 %13, 0
  br i1 %14, label %15, label %17

15:                                               ; preds = %11
  %16 = tail call i32 (ptr, ...) @error(ptr noundef nonnull @.str.91) #19
  br label %52

17:                                               ; preds = %11
  %18 = load i32, ptr getelementptr inbounds nuw (i8, ptr @slurm_conf, i64 1216), align 8
  %19 = tail call i64 @time(ptr noundef null) #19
  %20 = tail call i32 @getpid() #19
  %21 = sext i32 %20 to i64
  %22 = add nsw i64 %19, %21
  %23 = load i16, ptr getelementptr inbounds nuw (i8, ptr @slurm_conf, i64 1220), align 4
  %24 = zext i16 %23 to i64
  %25 = srem i64 %22, %24
  %26 = zext i32 %18 to i64
  %27 = add nsw i64 %25, %26
  %28 = trunc i64 %27 to i16
  %29 = tail call ptr @slurm_xcalloc(i64 noundef 1, i64 noundef 152, i1 noundef zeroext true, i1 noundef zeroext false, ptr noundef nonnull @.str, i32 noundef 152, ptr noundef nonnull @__func__._slurm_api_get_comm_config) #19
  %30 = load i32, ptr %2, align 8
  %31 = zext i32 %30 to i64
  %32 = tail call ptr @slurm_xcalloc(i64 noundef %31, i64 noundef 128, i1 noundef zeroext true, i1 noundef zeroext false, ptr noundef nonnull @.str, i32 noundef 154, ptr noundef nonnull @__func__._slurm_api_get_comm_config) #19
  %33 = getelementptr inbounds nuw i8, ptr %29, i64 8
  store ptr %32, ptr %33, align 8
  %34 = load i32, ptr %2, align 8
  store i32 %34, ptr %29, align 8
  %.not32 = icmp eq i32 %34, 0
  br i1 %.not32, label %._crit_edge, label %.lr.ph

._crit_edge:                                      ; preds = %44, %17
  %35 = getelementptr inbounds nuw i8, ptr %1, i64 1184
  %36 = load ptr, ptr %35, align 8
  %.not29 = icmp eq ptr %36, null
  br i1 %.not29, label %52, label %48

.lr.ph:                                           ; preds = %17, %44
  %37 = phi i32 [ %45, %44 ], [ %34, %17 ]
  %indvars.iv = phi i64 [ %indvars.iv.next, %44 ], [ 0, %17 ]
  %38 = load ptr, ptr %5, align 8
  %39 = getelementptr inbounds nuw ptr, ptr %38, i64 %indvars.iv
  %40 = load ptr, ptr %39, align 8
  %.not30 = icmp eq ptr %40, null
  br i1 %.not30, label %44, label %41

41:                                               ; preds = %.lr.ph
  %42 = load ptr, ptr %33, align 8
  %43 = getelementptr inbounds nuw %struct.sockaddr_storage, ptr %42, i64 %indvars.iv
  tail call void @slurm_set_addr(ptr noundef %43, i16 noundef zeroext %28, ptr noundef nonnull %40) #19
  %.pre = load i32, ptr %29, align 8
  br label %44

44:                                               ; preds = %.lr.ph, %41
  %45 = phi i32 [ %37, %.lr.ph ], [ %.pre, %41 ]
  %indvars.iv.next = add nuw nsw i64 %indvars.iv, 1
  %46 = zext i32 %45 to i64
  %47 = icmp samesign ult i64 %indvars.iv.next, %46
  br i1 %47, label %.lr.ph, label %._crit_edge, !llvm.loop !20

48:                                               ; preds = %._crit_edge
  %49 = getelementptr inbounds nuw i8, ptr %29, i64 16
  store i8 1, ptr %49, align 8
  %50 = getelementptr inbounds nuw i8, ptr %29, i64 24
  %51 = load ptr, ptr %35, align 8
  tail call void @slurm_set_addr(ptr noundef nonnull %50, i16 noundef zeroext %28, ptr noundef %51) #19
  br label %52

52:                                               ; preds = %._crit_edge, %48, %15, %9
  %.024 = phi ptr [ null, %15 ], [ %29, %48 ], [ %29, %._crit_edge ], [ null, %9 ]
  tail call void @slurm_conf_unlock() #19
  ret ptr %.024
}